target datalayout = "e-m:e-p270:32:32-p271:32:32-p272:64:64-i64:64-i128:128-f80:128-n8:16:32:64-S128"
target triple = "x86_64-pc-linux-gnu"

%struct._object = type { %union.anon.41, ptr }
%union.anon.41 = type { i64 }
%struct.anon.42 = type { i32, i32 }
%struct._signal_module_state = type { ptr, ptr, ptr, ptr }
%struct.siginfo_t = type { i32, i32, i32, i32, %union.anon.808 }
%union.anon.808 = type { %struct.anon.812, [80 x i8] }
%struct.anon.812 = type { i32, i32, i32, i64, i64 }
%struct.anon.809 = type { i32, i32 }
%struct.anon.816 = type { i64, i32 }

; Function Attrs: alwaysinline nounwind uwtable
define internal i32 @_Py_IsImmortal(ptr noundef %0) #4 {
  %2 = alloca ptr, align 8
  store ptr %0, ptr %2, align 8, !tbaa !179
  %3 = load ptr, ptr %2, align 8, !tbaa !179
  %4 = getelementptr inbounds nuw %struct._object, ptr %3, i32 0, i32 0
  %5 = getelementptr inbounds nuw %struct.anon.42, ptr %4, i32 0, i32 0
  %6 = load i32, ptr %5, align 8, !tbaa !186
  %7 = icmp slt i32 %6, 0
  %8 = zext i1 %7 to i32
  ret i32 %8
}

; Function Attrs: alwaysinline nounwind uwtable
define internal void @Py_DECREF(ptr noundef %0) #4 {
  %2 = alloca ptr, align 8
  store ptr %0, ptr %2, align 8, !tbaa !179
  %3 = load ptr, ptr %2, align 8, !tbaa !179
  %4 = call i32 @_Py_IsImmortal(ptr noundef %3)
  %5 = icmp ne i32 %4, 0
  br i1 %5, label %6, label %7

6:                                                ; preds = %1
  br label %16

7:                                                ; preds = %1
  %8 = load ptr, ptr %2, align 8, !tbaa !179
  %9 = getelementptr inbounds nuw %struct._object, ptr %8, i32 0, i32 0
  %10 = getelementptr inbounds nuw %struct.anon.42, ptr %9, i32 0, i32 0
  %11 = load i32, ptr %10, align 8, !tbaa !186
  %12 = add i32 %11, -1
  store i32 %12, ptr %10, align 8, !tbaa !186
  %13 = icmp eq i32 %12, 0
  br i1 %13, label %14, label %16

14:                                               ; preds = %7
  %15 = load ptr, ptr %2, align 8, !tbaa !179
  call void @_Py_Dealloc(ptr noundef %15)
  br label %16

16:                                               ; preds = %6, %14, %7
  ret void
}

; Function Attrs: nounwind uwtable
define internal ptr @fill_siginfo(ptr noundef %0, ptr noundef %1) #0 {
  %3 = alloca ptr, align 8
  %4 = alloca ptr, align 8
  %5 = alloca ptr, align 8
  %6 = alloca ptr, align 8
  %7 = alloca i32, align 4
  store ptr %0, ptr %4, align 8, !tbaa !202
  store ptr %1, ptr %5, align 8, !tbaa !202
  call void @llvm.lifetime.start.p0(i64 8, ptr %6) #10
  %8 = load ptr, ptr %4, align 8, !tbaa !202
  %9 = getelementptr inbounds nuw %struct._signal_module_state, ptr %8, i32 0, i32 3
  %10 = load ptr, ptr %9, align 8, !tbaa !205
  %11 = call ptr @PyStructSequence_New(ptr noundef %10)
  store ptr %11, ptr %6, align 8, !tbaa !179
  %12 = load ptr, ptr %6, align 8, !tbaa !179
  %13 = icmp ne ptr %12, null
  br i1 %13, label %15, label %14

14:                                               ; preds = %2
  store ptr null, ptr %3, align 8
  store i32 1, ptr %7, align 4
  br label %66

15:                                               ; preds = %2
  %16 = load ptr, ptr %6, align 8, !tbaa !179
  %17 = load ptr, ptr %5, align 8, !tbaa !202
  %18 = getelementptr inbounds nuw %struct.siginfo_t, ptr %17, i32 0, i32 0
  %19 = load i32, ptr %18, align 8, !tbaa !232
  %20 = sext i32 %19 to i64
  %21 = call ptr @PyLong_FromLong(i64 noundef %20)
  call void @PyStructSequence_SetItem(ptr noundef %16, i64 noundef 0, ptr noundef %21)
  %22 = load ptr, ptr %6, align 8, !tbaa !179
  %23 = load ptr, ptr %5, align 8, !tbaa !202
  %24 = getelementptr inbounds nuw %struct.siginfo_t, ptr %23, i32 0, i32 2
  %25 = load i32, ptr %24, align 8, !tbaa !234
  %26 = sext i32 %25 to i64
  %27 = call ptr @PyLong_FromLong(i64 noundef %26)
  call void @PyStructSequence_SetItem(ptr noundef %22, i64 noundef 1, ptr noundef %27)
  %28 = load ptr, ptr %6, align 8, !tbaa !179
  %29 = load ptr, ptr %5, align 8, !tbaa !202
  %30 = getelementptr inbounds nuw %struct.siginfo_t, ptr %29, i32 0, i32 1
  %31 = load i32, ptr %30, align 4, !tbaa !235
  %32 = sext i32 %31 to i64
  %33 = call ptr @PyLong_FromLong(i64 noundef %32)
  call void @PyStructSequence_SetItem(ptr noundef %28, i64 noundef 2, ptr noundef %33)
  %34 = load ptr, ptr %6, align 8, !tbaa !179
  %35 = load ptr, ptr %5, align 8, !tbaa !202
  %36 = getelementptr inbounds nuw %struct.siginfo_t, ptr %35, i32 0, i32 4
  %37 = getelementptr inbounds nuw %struct.anon.809, ptr %36, i32 0, i32 0
  %38 = load i32, ptr %37, align 8, !tbaa !186
  %39 = sext i32 %38 to i64
  %40 = call ptr @PyLong_FromLong(i64 noundef %39)
  call void @PyStructSequence_SetItem(ptr noundef %34, i64 noundef 3, ptr noundef %40)
  %41 = load ptr, ptr %6, align 8, !tbaa !179
  %42 = load ptr, ptr %5, align 8, !tbaa !202
  %43 = getelementptr inbounds nuw %struct.siginfo_t, ptr %42, i32 0, i32 4
  %44 = getelementptr inbounds nuw %struct.anon.809, ptr %43, i32 0, i32 1
  %45 = load i32, ptr %44, align 4, !tbaa !186
  %46 = call ptr @_PyLong_FromUid(i32 noundef %45)
  call void @PyStructSequence_SetItem(ptr noundef %41, i64 noundef 4, ptr noundef %46)
  %47 = load ptr, ptr %6, align 8, !tbaa !179
  %48 = load ptr, ptr %5, align 8, !tbaa !202
  %49 = getelementptr inbounds nuw %struct.siginfo_t, ptr %48, i32 0, i32 4
  %50 = getelementptr inbounds nuw %struct.anon.812, ptr %49, i32 0, i32 2
  %51 = load i32, ptr %50, align 8, !tbaa !186
  %52 = sext i32 %51 to i64
  %53 = call ptr @PyLong_FromLong(i64 noundef %52)
  call void @PyStructSequence_SetItem(ptr noundef %47, i64 noundef 5, ptr noundef %53)
  %54 = load ptr, ptr %6, align 8, !tbaa !179
  %55 = load ptr, ptr %5, align 8, !tbaa !202
  %56 = getelementptr inbounds nuw %struct.siginfo_t, ptr %55, i32 0, i32 4
  %57 = getelementptr inbounds nuw %struct.anon.816, ptr %56, i32 0, i32 0
  %58 = load i64, ptr %57, align 8, !tbaa !186
  %59 = call ptr @PyLong_FromLong(i64 noundef %58)
  call void @PyStructSequence_SetItem(ptr noundef %54, i64 noundef 6, ptr noundef %59)
  %60 = call ptr @PyErr_Occurred()
  %61 = icmp ne ptr %60, null
  br i1 %61, label %62, label %64

62:                                               ; preds = %15
  %63 = load ptr, ptr %6, align 8, !tbaa !179
  call void @Py_DECREF(ptr noundef %63)
  store ptr null, ptr %3, align 8
  store i32 1, ptr %7, align 4
  br label %66

64:                                               ; preds = %15
  %65 = load ptr, ptr %6, align 8, !tbaa !179
  store ptr %65, ptr %3, align 8
  store i32 1, ptr %7, align 4
  br label %66

66:                                               ; preds = %64, %62, %14
  call void @llvm.lifetime.end.p0(i64 8, ptr %6) #10
  %67 = load ptr, ptr %3, align 8
  ret ptr %67
}