; Function Attrs: nounwind uwtable
define internal fastcc ptr @fill_siginfo(ptr %.24.val, ptr noundef nonnull readonly captures(none) %0) unnamed_addr #2 {
  %2 = tail call ptr @PyStructSequence_New(ptr noundef %.24.val) #15
  %.not = icmp eq ptr %2, null
  br i1 %.not, label %Py_DECREF.exit, label %3

3:                                                ; preds = %1
  %4 = load i32, ptr %0, align 8, !tbaa !225
  %5 = sext i32 %4 to i64
  %6 = tail call ptr @PyLong_FromLong(i64 noundef %5) #15
  tail call void @PyStructSequence_SetItem(ptr noundef nonnull %2, i64 noundef 0, ptr noundef %6) #15
  %7 = getelementptr inbounds nuw i8, ptr %0, i64 8
  %8 = load i32, ptr %7, align 8, !tbaa !227
  %9 = sext i32 %8 to i64
  %10 = tail call ptr @PyLong_FromLong(i64 noundef %9) #15
  tail call void @PyStructSequence_SetItem(ptr noundef nonnull %2, i64 noundef 1, ptr noundef %10) #15
  %11 = getelementptr inbounds nuw i8, ptr %0, i64 4
  %12 = load i32, ptr %11, align 4, !tbaa !228
  %13 = sext i32 %12 to i64
  %14 = tail call ptr @PyLong_FromLong(i64 noundef %13) #15
  tail call void @PyStructSequence_SetItem(ptr noundef nonnull %2, i64 noundef 2, ptr noundef %14) #15
  %15 = getelementptr inbounds nuw i8, ptr %0, i64 16
  %16 = load i32, ptr %15, align 8, !tbaa !180
  %17 = sext i32 %16 to i64
  %18 = tail call ptr @PyLong_FromLong(i64 noundef %17) #15
  tail call void @PyStructSequence_SetItem(ptr noundef nonnull %2, i64 noundef 3, ptr noundef %18) #15
  %19 = getelementptr inbounds nuw i8, ptr %0, i64 20
  %20 = load i32, ptr %19, align 4, !tbaa !180
  %21 = tail call ptr @_PyLong_FromUid(i32 noundef %20) #15
  tail call void @PyStructSequence_SetItem(ptr noundef nonnull %2, i64 noundef 4, ptr noundef %21) #15
  %22 = getelementptr inbounds nuw i8, ptr %0, i64 24
  %23 = load i32, ptr %22, align 8, !tbaa !180
  %24 = sext i32 %23 to i64
  %25 = tail call ptr @PyLong_FromLong(i64 noundef %24) #15
  tail call void @PyStructSequence_SetItem(ptr noundef nonnull %2, i64 noundef 5, ptr noundef %25) #15
  %26 = load i64, ptr %15, align 8, !tbaa !180
  %27 = tail call ptr @PyLong_FromLong(i64 noundef %26) #15
  tail call void @PyStructSequence_SetItem(ptr noundef nonnull %2, i64 noundef 6, ptr noundef %27) #15
  %28 = tail call ptr @PyErr_Occurred() #15
  %.not20 = icmp eq ptr %28, null
  br i1 %.not20, label %Py_DECREF.exit, label %29

29:                                               ; preds = %3
  %30 = load i32, ptr %2, align 8, !tbaa !180
  %.not.i = icmp sgt i32 %30, -1
  br i1 %.not.i, label %31, label %Py_DECREF.exit

31:                                               ; preds = %29
  %32 = add nsw i32 %30, -1
  store i32 %32, ptr %2, align 8, !tbaa !180
  %33 = icmp eq i32 %32, 0
  br i1 %33, label %34, label %Py_DECREF.exit

34:                                               ; preds = %31
  tail call void @_Py_Dealloc(ptr noundef nonnull %2) #15
  br label %Py_DECREF.exit

Py_DECREF.exit:                                   ; preds = %34, %31, %29, %3, %1
  %.0 = phi ptr [ null, %1 ], [ %2, %3 ], [ null, %29 ], [ null, %31 ], [ null, %34 ]
  ret ptr %.0
}